; Function Attrs: nounwind uwtable
define void @Cgt_ManCollectVisited(ptr noundef %0, ptr noundef readonly captures(none) %1, ptr noundef initializes((4, 8)) %2) local_unnamed_addr #0 {
  %4 = getelementptr inbounds nuw i8, ptr %2, i64 4
  store i32 0, ptr %4, align 4, !tbaa !28
  tail call void @Aig_ManIncrementTravId(ptr noundef %0) #13
  %5 = getelementptr i8, ptr %1, i64 4
  %.val910 = load i32, ptr %5, align 4, !tbaa !28
  %6 = icmp sgt i32 %.val910, 0
  br i1 %6, label %.lr.ph, label %.critedge

.lr.ph:                                           ; preds = %3
  %7 = getelementptr i8, ptr %1, i64 8
  br label %8

8:                                                ; preds = %.lr.ph, %8
  %indvars.iv = phi i64 [ 0, %.lr.ph ], [ %indvars.iv.next, %8 ]
  %.val = load ptr, ptr %7, align 8, !tbaa !31
  %9 = getelementptr inbounds nuw ptr, ptr %.val, i64 %indvars.iv
  %10 = load ptr, ptr %9, align 8, !tbaa !32
  tail call void @Cgt_ManCollectVisited_rec(ptr noundef %0, ptr noundef %10, ptr noundef %2)
  %indvars.iv.next = add nuw nsw i64 %indvars.iv, 1
  %.val9 = load i32, ptr %5, align 4, !tbaa !28
  %11 = sext i32 %.val9 to i64
  %12 = icmp slt i64 %indvars.iv.next, %11
  br i1 %12, label %8, label %.critedge, !llvm.loop !40

.critedge:                                        ; preds = %8, %3
  ret void
}